; Function Attrs: nounwind uwtable
define ptr @l_Lean_Environment_addConstAsync___lambda__7___boxed(ptr noundef %0, ptr noundef %1) #1 {
  %3 = ptrtoint ptr %1 to i64
  %4 = and i64 %3, 1
  %.not.i.i = icmp eq i64 %4, 0
  br i1 %.not.i.i, label %8, label %5

5:                                                ; preds = %2
  %6 = lshr i64 %3, 1
  %7 = trunc i64 %6 to i32
  br label %lean_obj_tag.exit.i

8:                                                ; preds = %2
  %9 = getelementptr i8, ptr %1, i64 4
  %.val.i.i = load i32, ptr %9, align 4
  %10 = lshr i32 %.val.i.i, 24
  br label %lean_obj_tag.exit.i

lean_obj_tag.exit.i:                              ; preds = %8, %5
  %.0.i.i = phi i32 [ %7, %5 ], [ %10, %8 ]
  %11 = icmp eq i32 %.0.i.i, 0
  br i1 %11, label %12, label %25

12:                                               ; preds = %lean_obj_tag.exit.i
  %13 = getelementptr inbounds nuw i8, ptr %0, i64 8
  %14 = load ptr, ptr %13, align 8, !tbaa !9
  %15 = getelementptr inbounds nuw i8, ptr %14, i64 32
  %16 = load ptr, ptr %15, align 8, !tbaa !9
  %17 = ptrtoint ptr %16 to i64
  %18 = and i64 %17, 1
  %.not16.i = icmp eq i64 %18, 0
  br i1 %.not16.i, label %19, label %l_Lean_Environment_addConstAsync___lambda__7.exit

19:                                               ; preds = %12
  %.val.i11.i = load i32, ptr %16, align 4, !tbaa !4
  %20 = icmp sgt i32 %.val.i11.i, 0
  br i1 %20, label %21, label %23, !prof !11

21:                                               ; preds = %19
  %22 = add nuw i32 %.val.i11.i, 1
  store i32 %22, ptr %16, align 4, !tbaa !4
  br label %l_Lean_Environment_addConstAsync___lambda__7.exit

23:                                               ; preds = %19
  %.not.i12.i = icmp eq i32 %.val.i11.i, 0
  br i1 %.not.i12.i, label %l_Lean_Environment_addConstAsync___lambda__7.exit, label %24

24:                                               ; preds = %23
  tail call void @lean_inc_ref_cold(ptr noundef nonnull %16) #10
  br label %l_Lean_Environment_addConstAsync___lambda__7.exit

25:                                               ; preds = %lean_obj_tag.exit.i
  %26 = getelementptr inbounds nuw i8, ptr %1, i64 8
  %27 = load ptr, ptr %26, align 8, !tbaa !9
  %28 = getelementptr inbounds nuw i8, ptr %27, i64 24
  %29 = load ptr, ptr %28, align 8, !tbaa !9
  %30 = ptrtoint ptr %29 to i64
  %31 = and i64 %30, 1
  %.not.i8 = icmp eq i64 %31, 0
  br i1 %.not.i8, label %32, label %l_Lean_Environment_addConstAsync___lambda__7.exit

32:                                               ; preds = %25
  %.val.i13.i = load i32, ptr %29, align 4, !tbaa !4
  %33 = icmp sgt i32 %.val.i13.i, 0
  br i1 %33, label %34, label %36, !prof !11

34:                                               ; preds = %32
  %35 = add nuw i32 %.val.i13.i, 1
  store i32 %35, ptr %29, align 4, !tbaa !4
  br label %l_Lean_Environment_addConstAsync___lambda__7.exit

36:                                               ; preds = %32
  %.not.i14.i = icmp eq i32 %.val.i13.i, 0
  br i1 %.not.i14.i, label %l_Lean_Environment_addConstAsync___lambda__7.exit, label %37

37:                                               ; preds = %36
  tail call void @lean_inc_ref_cold(ptr noundef nonnull %29) #10
  br label %l_Lean_Environment_addConstAsync___lambda__7.exit

l_Lean_Environment_addConstAsync___lambda__7.exit: ; preds = %12, %21, %23, %24, %25, %34, %36, %37
  %.0.i = phi ptr [ %16, %24 ], [ %16, %23 ], [ %16, %21 ], [ %16, %12 ], [ %29, %37 ], [ %29, %36 ], [ %29, %34 ], [ %29, %25 ]
  br i1 %.not.i.i, label %38, label %lean_dec.exit5

38:                                               ; preds = %l_Lean_Environment_addConstAsync___lambda__7.exit
  %39 = load i32, ptr %1, align 4, !tbaa !4
  %40 = icmp sgt i32 %39, 1
  br i1 %40, label %41, label %43, !prof !11

41:                                               ; preds = %38
  %42 = add nsw i32 %39, -1
  store i32 %42, ptr %1, align 4, !tbaa !4
  br label %lean_dec.exit5

43:                                               ; preds = %38
  %.not.i = icmp eq i32 %39, 0
  br i1 %.not.i, label %lean_dec.exit5, label %44

44:                                               ; preds = %43
  tail call void @lean_dec_ref_cold(ptr noundef nonnull %1) #10
  br label %lean_dec.exit5

lean_dec.exit5:                                   ; preds = %44, %43, %41, %l_Lean_Environment_addConstAsync___lambda__7.exit
  %45 = ptrtoint ptr %0 to i64
  %46 = and i64 %45, 1
  %.not9 = icmp eq i64 %46, 0
  br i1 %.not9, label %47, label %lean_dec.exit

47:                                               ; preds = %lean_dec.exit5
  %48 = load i32, ptr %0, align 4, !tbaa !4
  %49 = icmp sgt i32 %48, 1
  br i1 %49, label %50, label %52, !prof !11

50:                                               ; preds = %47
  %51 = add nsw i32 %48, -1
  store i32 %51, ptr %0, align 4, !tbaa !4
  br label %lean_dec.exit

52:                                               ; preds = %47
  %.not.i6 = icmp eq i32 %48, 0
  br i1 %.not.i6, label %lean_dec.exit, label %53

53:                                               ; preds = %52
  tail call void @lean_dec_ref_cold(ptr noundef nonnull %0) #10
  br label %lean_dec.exit

lean_dec.exit:                                    ; preds = %53, %52, %50, %lean_dec.exit5
  ret ptr %.0.i
}